target datalayout = "e-m:e-p270:32:32-p271:32:32-p272:64:64-i64:64-i128:128-f80:128-n8:16:32:64-S128"
target triple = "x86_64-pc-linux-gnu"

@hf_E164_msisdn = internal global i32 0, align 4
@ett_e164_msisdn = internal global i32 0, align 4
@.str.483 = private unnamed_addr constant [55 x i8] c"%s:%u: failed assertion \22DISSECTOR_ASSERT_NOT_REACHED\22\00", align 1
@.str.484 = private unnamed_addr constant [30 x i8] c"epan/dissectors/packet-e164.c\00", align 1

; Function Attrs: null_pointer_is_valid sspstrong uwtable
define internal ptr @dissect_e164(ptr noundef %0, ptr noundef %1, i32 noundef %2, i32 noundef %3, i32 noundef %4, i32 noundef %5) #1 {
  %7 = alloca ptr, align 8
  %8 = alloca ptr, align 8
  %9 = alloca i32, align 4
  %10 = alloca i32, align 4
  %11 = alloca i32, align 4
  %12 = alloca i32, align 4
  %13 = alloca ptr, align 8
  %14 = alloca ptr, align 8
  %15 = alloca i32, align 4
  %16 = alloca ptr, align 8
  store ptr %0, ptr %7, align 8
  store ptr %1, ptr %8, align 8
  store i32 %2, ptr %9, align 4
  store i32 %3, ptr %10, align 4
  store i32 %4, ptr %11, align 4
  store i32 %5, ptr %12, align 4
  call void @llvm.lifetime.start.p0(i64 8, ptr %13) #6
  call void @llvm.lifetime.start.p0(i64 8, ptr %14) #6
  call void @llvm.lifetime.start.p0(i64 4, ptr %15) #6
  call void @llvm.lifetime.start.p0(i64 8, ptr %16) #6
  %17 = load i32, ptr %11, align 4
  switch i32 %17, label %21 [
    i32 2, label %18
    i32 1, label %19
    i32 0, label %20
  ]

18:                                               ; preds = %6
  store i32 2, ptr %15, align 4
  br label %22

19:                                               ; preds = %6
  store i32 -2147483580, ptr %15, align 4
  br label %22

20:                                               ; preds = %6
  br label %21

21:                                               ; preds = %6, %20
  call void (ptr, ...) @proto_report_dissector_bug(ptr noundef @.str.483, ptr noundef @.str.484, i32 noundef 818) #7
  unreachable

22:                                               ; preds = %19, %18
  %23 = load ptr, ptr %8, align 8
  %24 = load i32, ptr %12, align 4
  %25 = load ptr, ptr %7, align 8
  %26 = load i32, ptr %9, align 4
  %27 = load i32, ptr %10, align 4
  %28 = load i32, ptr %15, align 4
  %29 = call ptr @wmem_packet_scope()
  %30 = call ptr @proto_tree_add_item_ret_display_string(ptr noundef %23, i32 noundef %24, ptr noundef %25, i32 noundef %26, i32 noundef %27, i32 noundef %28, ptr noundef %29, ptr noundef %16)
  store ptr %30, ptr %13, align 8
  %31 = load ptr, ptr %13, align 8
  %32 = load i32, ptr @ett_e164_msisdn, align 4
  %33 = call ptr @proto_item_add_subtree(ptr noundef %31, i32 noundef %32)
  store ptr %33, ptr %14, align 8
  %34 = load ptr, ptr %7, align 8
  %35 = load ptr, ptr %14, align 8
  %36 = load i32, ptr %9, align 4
  %37 = load i32, ptr %11, align 4
  call void @dissect_e164_cc(ptr noundef %34, ptr noundef %35, i32 noundef %36, i32 noundef %37)
  %38 = load ptr, ptr %16, align 8
  call void @llvm.lifetime.end.p0(i64 8, ptr %16) #6
  call void @llvm.lifetime.end.p0(i64 4, ptr %15) #6
  call void @llvm.lifetime.end.p0(i64 8, ptr %14) #6
  call void @llvm.lifetime.end.p0(i64 8, ptr %13) #6
  ret ptr %38
}

; Function Attrs: null_pointer_is_valid sspstrong uwtable
define ptr @dissect_e164_msisdn(ptr noundef %0, ptr noundef %1, i32 noundef %2, i32 noundef %3, i32 noundef %4) #1 {
  %6 = alloca ptr, align 8
  %7 = alloca ptr, align 8
  %8 = alloca i32, align 4
  %9 = alloca i32, align 4
  %10 = alloca i32, align 4
  store ptr %0, ptr %6, align 8
  store ptr %1, ptr %7, align 8
  store i32 %2, ptr %8, align 4
  store i32 %3, ptr %9, align 4
  store i32 %4, ptr %10, align 4
  %11 = load ptr, ptr %6, align 8
  %12 = load ptr, ptr %7, align 8
  %13 = load i32, ptr %8, align 4
  %14 = load i32, ptr %9, align 4
  %15 = load i32, ptr %10, align 4
  %16 = load i32, ptr @hf_E164_msisdn, align 4
  %17 = call ptr @dissect_e164(ptr noundef %11, ptr noundef %12, i32 noundef %13, i32 noundef %14, i32 noundef %15, i32 noundef %16)
  ret ptr %17
}